; Function Attrs: mustprogress uwtable
define internal noundef double @"_ZNSt17_Function_handlerIFddEZNK8QuantLib21LocalVolRNDCalculator3cdfEddE3$_0E9_M_invokeERKSt9_Any_dataOd"(ptr nocapture noundef nonnull readonly align 8 dereferenceable(16) %__functor, ptr nocapture noundef nonnull readonly align 8 dereferenceable(8) %__args) #6 align 2 {
entry:
  %call.val = load ptr, ptr %__functor, align 8, !tbaa !225
  %0 = getelementptr inbounds i8, ptr %__functor, i64 8
  %call.val1 = load ptr, ptr %0, align 8, !tbaa !227
  %__args.val = load double, ptr %__args, align 8, !tbaa !105
  %call.val1.val = load double, ptr %call.val1, align 8, !tbaa !105
  %vtable.i.i.i = load ptr, ptr %call.val, align 8, !tbaa !35
  %1 = load ptr, ptr %vtable.i.i.i, align 8
  %call.i.i.i = tail call noundef double %1(ptr noundef nonnull align 8 dereferenceable(240) %call.val, double noundef %__args.val, double noundef %call.val1.val)
  ret double %call.i.i.i
}